(dp0
S'teensys'
p1
(dp2
S'12161'
p3
(dp4
I8
I5
sI9
I6
ssS'12151'
p5
(dp6
I10
I0
sI11
I1
sI12
I2
sI13
I3
sI14
I4
sI15
I5
sI16
I6
sI17
I7
ssS'14421'
p7
(dp8
I0
I0
sI1
I1
sI2
I2
sI3
I3
sI4
I4
sI5
I5
sI6
I6
sI7
I7
sssS'struts_per_strand'
p9
I4
sS'leds_per_strut'
p10
I60
s.