(dp0
Vteensys
p1
(dp2
V1
p3
(dp4
V11
p5
I3
sV10
p6
I2
sV13
p7
I5
sV12
p8
I4
sV15
p9
I7
sV14
p10
I6
sV9
p11
I1
sV8
p12
I0
ssV0
p13
(dp14
V1
p15
I1
sV0
p16
I0
sV3
p17
I3
sV2
p18
I2
sV5
p19
I5
sV4
p20
I4
sV7
p21
I7
sV6
p22
I6
sssVstruts_per_strand
p23
I4
sVleds_per_strut
p24
I60
s.